target datalayout = "e-m:e-p270:32:32-p271:32:32-p272:64:64-i64:64-i128:128-f80:128-n8:16:32:64-S128"
target triple = "x86_64-pc-linux-gnu"

%struct.lexbor_bst_entry = type { ptr, ptr, ptr, ptr, ptr, i64 }

@.str = private unnamed_addr constant [2 x i8] c"\09\00", align 1
@.str.1 = private unnamed_addr constant [7 x i8] c"<left \00", align 1
@.str.2 = private unnamed_addr constant [3 x i8] c">\0A\00", align 1
@.str.3 = private unnamed_addr constant [6 x i8] c"NULL>\00", align 1
@.str.4 = private unnamed_addr constant [9 x i8] c"</left>\0A\00", align 1
@.str.5 = private unnamed_addr constant [8 x i8] c"<right \00", align 1
@.str.6 = private unnamed_addr constant [10 x i8] c"</right>\0A\00", align 1

; Function Attrs: nounwind uwtable
define hidden void @lexbor_bst_serialize_entry(ptr noundef %0, ptr noundef %1, ptr noundef %2, i64 noundef %3) #0 {
  %5 = alloca ptr, align 8
  %6 = alloca ptr, align 8
  %7 = alloca ptr, align 8
  %8 = alloca i64, align 8
  %9 = alloca i64, align 8
  %10 = alloca [1024 x i8], align 16
  %11 = alloca i64, align 8
  %12 = alloca i64, align 8
  %13 = alloca i64, align 8
  %14 = alloca i64, align 8
  store ptr %0, ptr %5, align 8
  store ptr %1, ptr %6, align 8
  store ptr %2, ptr %7, align 8
  store i64 %3, ptr %8, align 8
  %15 = load ptr, ptr %5, align 8
  %16 = icmp eq ptr %15, null
  br i1 %16, label %17, label %18

17:                                               ; preds = %4
  br label %143

18:                                               ; preds = %4
  store i64 0, ptr %11, align 8
  br label %19

19:                                               ; preds = %27, %18
  %20 = load i64, ptr %11, align 8
  %21 = load i64, ptr %8, align 8
  %22 = icmp ult i64 %20, %21
  br i1 %22, label %23, label %30

23:                                               ; preds = %19
  %24 = load ptr, ptr %6, align 8
  %25 = load ptr, ptr %7, align 8
  %26 = call i32 %24(ptr noundef @.str, i64 noundef 1, ptr noundef %25)
  br label %27

27:                                               ; preds = %23
  %28 = load i64, ptr %11, align 8
  %29 = add i64 %28, 1
  store i64 %29, ptr %11, align 8
  br label %19

30:                                               ; preds = %19
  %31 = load ptr, ptr %6, align 8
  %32 = load ptr, ptr %7, align 8
  %33 = call i32 %31(ptr noundef @.str.1, i64 noundef 6, ptr noundef %32)
  %34 = load ptr, ptr %5, align 8
  %35 = getelementptr inbounds %struct.lexbor_bst_entry, ptr %34, i32 0, i32 2
  %36 = load ptr, ptr %35, align 8
  %37 = icmp ne ptr %36, null
  br i1 %37, label %38, label %73

38:                                               ; preds = %30
  %39 = load ptr, ptr %5, align 8
  %40 = getelementptr inbounds %struct.lexbor_bst_entry, ptr %39, i32 0, i32 2
  %41 = load ptr, ptr %40, align 8
  %42 = getelementptr inbounds %struct.lexbor_bst_entry, ptr %41, i32 0, i32 5
  %43 = load i64, ptr %42, align 8
  %44 = getelementptr inbounds [1024 x i8], ptr %10, i64 0, i64 0
  %45 = call i64 @lexbor_conv_int64_to_data(i64 noundef %43, ptr noundef %44, i64 noundef 1024)
  store i64 %45, ptr %9, align 8
  %46 = load ptr, ptr %6, align 8
  %47 = getelementptr inbounds [1024 x i8], ptr %10, i64 0, i64 0
  %48 = load i64, ptr %9, align 8
  %49 = load ptr, ptr %7, align 8
  %50 = call i32 %46(ptr noundef %47, i64 noundef %48, ptr noundef %49)
  %51 = load ptr, ptr %6, align 8
  %52 = load ptr, ptr %7, align 8
  %53 = call i32 %51(ptr noundef @.str.2, i64 noundef 2, ptr noundef %52)
  %54 = load ptr, ptr %5, align 8
  %55 = getelementptr inbounds %struct.lexbor_bst_entry, ptr %54, i32 0, i32 2
  %56 = load ptr, ptr %55, align 8
  %57 = load ptr, ptr %6, align 8
  %58 = load ptr, ptr %7, align 8
  %59 = load i64, ptr %8, align 8
  %60 = add i64 %59, 1
  call void @lexbor_bst_serialize_entry(ptr noundef %56, ptr noundef %57, ptr noundef %58, i64 noundef %60)
  store i64 0, ptr %12, align 8
  br label %61

61:                                               ; preds = %69, %38
  %62 = load i64, ptr %12, align 8
  %63 = load i64, ptr %8, align 8
  %64 = icmp ult i64 %62, %63
  br i1 %64, label %65, label %72

65:                                               ; preds = %61
  %66 = load ptr, ptr %6, align 8
  %67 = load ptr, ptr %7, align 8
  %68 = call i32 %66(ptr noundef @.str, i64 noundef 1, ptr noundef %67)
  br label %69

69:                                               ; preds = %65
  %70 = load i64, ptr %12, align 8
  %71 = add i64 %70, 1
  store i64 %71, ptr %12, align 8
  br label %61

72:                                               ; preds = %61
  br label %77

73:                                               ; preds = %30
  %74 = load ptr, ptr %6, align 8
  %75 = load ptr, ptr %7, align 8
  %76 = call i32 %74(ptr noundef @.str.3, i64 noundef 5, ptr noundef %75)
  br label %77

77:                                               ; preds = %73, %72
  %78 = load ptr, ptr %6, align 8
  %79 = load ptr, ptr %7, align 8
  %80 = call i32 %78(ptr noundef @.str.4, i64 noundef 8, ptr noundef %79)
  store i64 0, ptr %13, align 8
  br label %81

81:                                               ; preds = %89, %77
  %82 = load i64, ptr %13, align 8
  %83 = load i64, ptr %8, align 8
  %84 = icmp ult i64 %82, %83
  br i1 %84, label %85, label %92

85:                                               ; preds = %81
  %86 = load ptr, ptr %6, align 8
  %87 = load ptr, ptr %7, align 8
  %88 = call i32 %86(ptr noundef @.str, i64 noundef 1, ptr noundef %87)
  br label %89

89:                                               ; preds = %85
  %90 = load i64, ptr %13, align 8
  %91 = add i64 %90, 1
  store i64 %91, ptr %13, align 8
  br label %81

92:                                               ; preds = %81
  %93 = load ptr, ptr %6, align 8
  %94 = load ptr, ptr %7, align 8
  %95 = call i32 %93(ptr noundef @.str.5, i64 noundef 7, ptr noundef %94)
  %96 = load ptr, ptr %5, align 8
  %97 = getelementptr inbounds %struct.lexbor_bst_entry, ptr %96, i32 0, i32 1
  %98 = load ptr, ptr %97, align 8
  %99 = icmp ne ptr %98, null
  br i1 %99, label %100, label %135

100:                                              ; preds = %92
  %101 = load ptr, ptr %5, align 8
  %102 = getelementptr inbounds %struct.lexbor_bst_entry, ptr %101, i32 0, i32 1
  %103 = load ptr, ptr %102, align 8
  %104 = getelementptr inbounds %struct.lexbor_bst_entry, ptr %103, i32 0, i32 5
  %105 = load i64, ptr %104, align 8
  %106 = getelementptr inbounds [1024 x i8], ptr %10, i64 0, i64 0
  %107 = call i64 @lexbor_conv_int64_to_data(i64 noundef %105, ptr noundef %106, i64 noundef 1024)
  store i64 %107, ptr %9, align 8
  %108 = load ptr, ptr %6, align 8
  %109 = getelementptr inbounds [1024 x i8], ptr %10, i64 0, i64 0
  %110 = load i64, ptr %9, align 8
  %111 = load ptr, ptr %7, align 8
  %112 = call i32 %108(ptr noundef %109, i64 noundef %110, ptr noundef %111)
  %113 = load ptr, ptr %6, align 8
  %114 = load ptr, ptr %7, align 8
  %115 = call i32 %113(ptr noundef @.str.2, i64 noundef 2, ptr noundef %114)
  %116 = load ptr, ptr %5, align 8
  %117 = getelementptr inbounds %struct.lexbor_bst_entry, ptr %116, i32 0, i32 1
  %118 = load ptr, ptr %117, align 8
  %119 = load ptr, ptr %6, align 8
  %120 = load ptr, ptr %7, align 8
  %121 = load i64, ptr %8, align 8
  %122 = add i64 %121, 1
  call void @lexbor_bst_serialize_entry(ptr noundef %118, ptr noundef %119, ptr noundef %120, i64 noundef %122)
  store i64 0, ptr %14, align 8
  br label %123

123:                                              ; preds = %131, %100
  %124 = load i64, ptr %14, align 8
  %125 = load i64, ptr %8, align 8
  %126 = icmp ult i64 %124, %125
  br i1 %126, label %127, label %134

127:                                              ; preds = %123
  %128 = load ptr, ptr %6, align 8
  %129 = load ptr, ptr %7, align 8
  %130 = call i32 %128(ptr noundef @.str, i64 noundef 1, ptr noundef %129)
  br label %131

131:                                              ; preds = %127
  %132 = load i64, ptr %14, align 8
  %133 = add i64 %132, 1
  store i64 %133, ptr %14, align 8
  br label %123

134:                                              ; preds = %123
  br label %139

135:                                              ; preds = %92
  %136 = load ptr, ptr %6, align 8
  %137 = load ptr, ptr %7, align 8
  %138 = call i32 %136(ptr noundef @.str.3, i64 noundef 5, ptr noundef %137)
  br label %139

139:                                              ; preds = %135, %134
  %140 = load ptr, ptr %6, align 8
  %141 = load ptr, ptr %7, align 8
  %142 = call i32 %140(ptr noundef @.str.6, i64 noundef 9, ptr noundef %141)
  br label %143

143:                                              ; preds = %139, %17
  ret void
}