; Function Attrs: nounwind uwtable
define hidden void @lexbor_bst_serialize_entry(ptr noundef readonly %0, ptr noundef %1, ptr noundef %2, i64 noundef %3) local_unnamed_addr #0 {
  %5 = alloca [1024 x i8], align 16
  %6 = icmp eq ptr %0, null
  br i1 %6, label %44, label %.preheader

.preheader:                                       ; preds = %4
  %.not74 = icmp eq i64 %3, 0
  br i1 %.not74, label %._crit_edge, label %.lr.ph

.lr.ph:                                           ; preds = %.preheader, %.lr.ph
  %.05663 = phi i64 [ %8, %.lr.ph ], [ 0, %.preheader ]
  %7 = tail call i32 %1(ptr noundef nonnull @.str, i64 noundef 1, ptr noundef %2) #5
  %8 = add nuw i64 %.05663, 1
  %exitcond.not = icmp eq i64 %8, %3
  br i1 %exitcond.not, label %._crit_edge, label %.lr.ph

._crit_edge:                                      ; preds = %.lr.ph, %.preheader
  %9 = tail call i32 %1(ptr noundef nonnull @.str.1, i64 noundef 6, ptr noundef %2) #5
  %10 = getelementptr inbounds i8, ptr %0, i64 16
  %11 = load ptr, ptr %10, align 8
  %.not = icmp eq ptr %11, null
  br i1 %.not, label %.loopexit62, label %12

12:                                               ; preds = %._crit_edge
  %13 = getelementptr inbounds i8, ptr %11, i64 40
  %14 = load i64, ptr %13, align 8
  %15 = call i64 @lexbor_conv_int64_to_data(i64 noundef %14, ptr noundef nonnull %5, i64 noundef 1024) #5
  %16 = call i32 %1(ptr noundef nonnull %5, i64 noundef %15, ptr noundef %2) #5
  %17 = call i32 %1(ptr noundef nonnull @.str.2, i64 noundef 2, ptr noundef %2) #5
  %18 = load ptr, ptr %10, align 8
  %19 = add i64 %3, 1
  call void @lexbor_bst_serialize_entry(ptr noundef %18, ptr noundef %1, ptr noundef %2, i64 noundef %19)
  br i1 %.not74, label %.loopexit62.thread, label %.lr.ph66

.loopexit62.thread:                               ; preds = %12
  %20 = call i32 %1(ptr noundef nonnull @.str.4, i64 noundef 8, ptr noundef %2) #5
  br label %._crit_edge70

.lr.ph66:                                         ; preds = %12, %.lr.ph66
  %.05564 = phi i64 [ %22, %.lr.ph66 ], [ 0, %12 ]
  %21 = call i32 %1(ptr noundef nonnull @.str, i64 noundef 1, ptr noundef %2) #5
  %22 = add nuw i64 %.05564, 1
  %exitcond78.not = icmp eq i64 %22, %3
  br i1 %exitcond78.not, label %.loopexit62.thread81, label %.lr.ph66

.loopexit62.thread81:                             ; preds = %.lr.ph66
  %23 = call i32 %1(ptr noundef nonnull @.str.4, i64 noundef 8, ptr noundef %2) #5
  br label %.lr.ph69.preheader

.loopexit62:                                      ; preds = %._crit_edge
  %24 = tail call i32 %1(ptr noundef nonnull @.str.3, i64 noundef 5, ptr noundef %2) #5
  %25 = tail call i32 %1(ptr noundef nonnull @.str.4, i64 noundef 8, ptr noundef %2) #5
  br i1 %.not74, label %._crit_edge70, label %.lr.ph69.preheader

.lr.ph69.preheader:                               ; preds = %.loopexit62.thread81, %.loopexit62
  br label %.lr.ph69

.lr.ph69:                                         ; preds = %.lr.ph69.preheader, %.lr.ph69
  %.05467 = phi i64 [ %27, %.lr.ph69 ], [ 0, %.lr.ph69.preheader ]
  %26 = call i32 %1(ptr noundef nonnull @.str, i64 noundef 1, ptr noundef %2) #5
  %27 = add nuw i64 %.05467, 1
  %exitcond79.not = icmp eq i64 %27, %3
  br i1 %exitcond79.not, label %._crit_edge70, label %.lr.ph69

._crit_edge70:                                    ; preds = %.lr.ph69, %.loopexit62.thread, %.loopexit62
  %28 = call i32 %1(ptr noundef nonnull @.str.5, i64 noundef 7, ptr noundef %2) #5
  %29 = getelementptr inbounds i8, ptr %0, i64 8
  %30 = load ptr, ptr %29, align 8
  %.not61 = icmp eq ptr %30, null
  br i1 %.not61, label %41, label %31

31:                                               ; preds = %._crit_edge70
  %32 = getelementptr inbounds i8, ptr %30, i64 40
  %33 = load i64, ptr %32, align 8
  %34 = call i64 @lexbor_conv_int64_to_data(i64 noundef %33, ptr noundef nonnull %5, i64 noundef 1024) #5
  %35 = call i32 %1(ptr noundef nonnull %5, i64 noundef %34, ptr noundef %2) #5
  %36 = call i32 %1(ptr noundef nonnull @.str.2, i64 noundef 2, ptr noundef %2) #5
  %37 = load ptr, ptr %29, align 8
  %38 = add i64 %3, 1
  call void @lexbor_bst_serialize_entry(ptr noundef %37, ptr noundef %1, ptr noundef %2, i64 noundef %38)
  br i1 %.not74, label %.loopexit, label %.lr.ph73

.lr.ph73:                                         ; preds = %31, %.lr.ph73
  %.071 = phi i64 [ %40, %.lr.ph73 ], [ 0, %31 ]
  %39 = call i32 %1(ptr noundef nonnull @.str, i64 noundef 1, ptr noundef %2) #5
  %40 = add nuw i64 %.071, 1
  %exitcond80.not = icmp eq i64 %40, %3
  br i1 %exitcond80.not, label %.loopexit, label %.lr.ph73

41:                                               ; preds = %._crit_edge70
  %42 = call i32 %1(ptr noundef nonnull @.str.3, i64 noundef 5, ptr noundef %2) #5
  br label %.loopexit

.loopexit:                                        ; preds = %.lr.ph73, %31, %41
  %43 = call i32 %1(ptr noundef nonnull @.str.6, i64 noundef 9, ptr noundef %2) #5
  br label %44

44:                                               ; preds = %4, %.loopexit
  ret void
}